; Function Attrs: nounwind uwtable
define range(i32 0, 2) i32 @ossl_quic_hdr_protector_decrypt_fields(ptr noundef readonly captures(none) %0, ptr noundef %1, i64 noundef %2, ptr noundef captures(none) %3, ptr noundef captures(none) %4) local_unnamed_addr #0 {
  %6 = alloca [5 x i8], align 1
  call void @llvm.lifetime.start.p0(i64 5, ptr nonnull %6) #10
  %7 = call fastcc i32 @hdr_generate_mask(ptr noundef %0, ptr noundef %1, i64 noundef %2, ptr noundef %6)
  %.not = icmp eq i32 %7, 0
  br i1 %.not, label %.loopexit, label %8

8:                                                ; preds = %5
  %9 = load i8, ptr %6, align 1, !tbaa !23
  %10 = load i8, ptr %3, align 1, !tbaa !23
  %.not14 = icmp sgt i8 %10, -1
  %11 = select i1 %.not14, i8 31, i8 15
  %12 = and i8 %11, %9
  %13 = xor i8 %12, %10
  store i8 %13, ptr %3, align 1, !tbaa !23
  %14 = and i8 %13, 3
  %15 = add nuw nsw i8 %14, 1
  %wide.trip.count = zext nneg i8 %15 to i64
  br label %16

16:                                               ; preds = %8, %16
  %indvars.iv = phi i64 [ 0, %8 ], [ %17, %16 ]
  %17 = add nuw nsw i64 %indvars.iv, 1
  %18 = getelementptr inbounds nuw [5 x i8], ptr %6, i64 0, i64 %17
  %19 = load i8, ptr %18, align 1, !tbaa !23
  %20 = getelementptr inbounds nuw i8, ptr %4, i64 %indvars.iv
  %21 = load i8, ptr %20, align 1, !tbaa !23
  %22 = xor i8 %21, %19
  store i8 %22, ptr %20, align 1, !tbaa !23
  %exitcond = icmp eq i64 %17, %wide.trip.count
  br i1 %exitcond, label %.loopexit, label %16, !llvm.loop !24

.loopexit:                                        ; preds = %16, %5
  %.012 = phi i32 [ 0, %5 ], [ 1, %16 ]
  call void @llvm.lifetime.end.p0(i64 5, ptr nonnull %6) #10
  ret i32 %.012
}